; ModuleID = '44/91.c'
source_filename = "44/91.c"
target datalayout = "e-m:e-p270:32:32-p271:32:32-p272:64:64-i64:64-f80:128-n8:16:32:64-S128"
target triple = "x86_64-pc-linux-gnu"

@.str = private unnamed_addr constant [3 x i8] c"%d\00", align 1
@.str.1 = private unnamed_addr constant [5 x i8] c"-%d\0A\00", align 1
@.str.2 = private unnamed_addr constant [4 x i8] c"%d\0A\00", align 1

; Function Attrs: noinline nounwind uwtable
define dso_local i32 @main() #0 {
  %1 = alloca i32, align 4
  %2 = alloca i32, align 4
  %3 = alloca i32, align 4
  %4 = alloca i32, align 4
  store i32 0, i32* %1, align 4
  store i32 0, i32* %4, align 4
  br label %5

5:                                                ; preds = %25, %0
  %6 = load i32, i32* %4, align 4
  %7 = icmp slt i32 %6, 6
  br i1 %7, label %8, label %28

8:                                                ; preds = %5
  %9 = call i32 (i8*, ...) @__isoc99_scanf(i8* getelementptr inbounds ([3 x i8], [3 x i8]* @.str, i64 0, i64 0), i32* %2)
  %10 = load i32, i32* %2, align 4
  %11 = icmp slt i32 %10, 0
  br i1 %11, label %12, label %19

12:                                               ; preds = %8
  %13 = load i32, i32* %2, align 4
  %14 = sub nsw i32 0, %13
  store i32 %14, i32* %2, align 4
  %15 = load i32, i32* %2, align 4
  %16 = call i32 @reverse(i32 %15)
  store i32 %16, i32* %3, align 4
  %17 = load i32, i32* %3, align 4
  %18 = call i32 (i8*, ...) @printf(i8* getelementptr inbounds ([5 x i8], [5 x i8]* @.str.1, i64 0, i64 0), i32 %17)
  br label %24

19:                                               ; preds = %8
  %20 = load i32, i32* %2, align 4
  %21 = call i32 @reverse(i32 %20)
  store i32 %21, i32* %3, align 4
  %22 = load i32, i32* %3, align 4
  %23 = call i32 (i8*, ...) @printf(i8* getelementptr inbounds ([4 x i8], [4 x i8]* @.str.2, i64 0, i64 0), i32 %22)
  br label %24

24:                                               ; preds = %19, %12
  br label %25

25:                                               ; preds = %24
  %26 = load i32, i32* %4, align 4
  %27 = add nsw i32 %26, 1
  store i32 %27, i32* %4, align 4
  br label %5

28:                                               ; preds = %5
  ret i32 0
}

declare dso_local i32 @__isoc99_scanf(i8*, ...) #1

; Function Attrs: noinline nounwind uwtable
define dso_local i32 @reverse(i32 %0) #0 {
  %2 = alloca i32, align 4
  %3 = alloca i32, align 4
  %4 = alloca i32, align 4
  %5 = alloca i32, align 4
  %6 = alloca i32, align 4
  store i32 %0, i32* %2, align 4
  %7 = load i32, i32* %2, align 4
  store i32 %7, i32* %6, align 4
  store i32 1, i32* %3, align 4
  br label %8

8:                                                ; preds = %14, %1
  %9 = load i32, i32* %6, align 4
  %10 = icmp sge i32 %9, 10
  br i1 %10, label %11, label %17

11:                                               ; preds = %8
  %12 = load i32, i32* %6, align 4
  %13 = sdiv i32 %12, 10
  store i32 %13, i32* %6, align 4
  br label %14

14:                                               ; preds = %11
  %15 = load i32, i32* %3, align 4
  %16 = add nsw i32 %15, 1
  store i32 %16, i32* %3, align 4
  br label %8

17:                                               ; preds = %8
  store i32 0, i32* %4, align 4
  store i32 0, i32* %5, align 4
  br label %18

18:                                               ; preds = %33, %17
  %19 = load i32, i32* %4, align 4
  %20 = load i32, i32* %3, align 4
  %21 = icmp slt i32 %19, %20
  br i1 %21, label %22, label %36

22:                                               ; preds = %18
  %23 = load i32, i32* %2, align 4
  %24 = srem i32 %23, 10
  %25 = load i32, i32* %5, align 4
  %26 = mul nsw i32 %25, 10
  %27 = add nsw i32 %24, %26
  store i32 %27, i32* %5, align 4
  %28 = load i32, i32* %2, align 4
  %29 = load i32, i32* %2, align 4
  %30 = srem i32 %29, 10
  %31 = sub nsw i32 %28, %30
  %32 = sdiv i32 %31, 10
  store i32 %32, i32* %2, align 4
  br label %33

33:                                               ; preds = %22
  %34 = load i32, i32* %4, align 4
  %35 = add nsw i32 %34, 1
  store i32 %35, i32* %4, align 4
  br label %18

36:                                               ; preds = %18
  %37 = load i32, i32* %5, align 4
  ret i32 %37
}

declare dso_local i32 @printf(i8*, ...) #1


!llvm.module.flags = !{!0}
!llvm.ident = !{!1}

!0 = !{i32 1, !"wchar_size", i32 4}
!1 = !{!"clang version 10.0.0-4ubuntu1 "}
